; Function Attrs: nounwind uwtable
define dso_local { i64, ptr } @jv_array_append(i64 %0, ptr %1, i64 %2, ptr %3) local_unnamed_addr #2 {
  %5 = and i64 %0, 128
  %.not.i = icmp eq i64 %5, 0
  br i1 %.not.i, label %jv_copy.exit, label %6

6:                                                ; preds = %4
  %7 = load i32, ptr %1, align 4, !tbaa !9
  %8 = add nsw i32 %7, 1
  store i32 %8, ptr %1, align 4, !tbaa !9
  br label %jv_copy.exit

jv_copy.exit:                                     ; preds = %4, %6
  %.sroa.1.0.extract.shift.i.i = lshr i64 %0, 32
  %.sroa.1.0.extract.trunc.i.i = trunc nuw i64 %.sroa.1.0.extract.shift.i.i to i32
  tail call void @jv_free(i64 %0, ptr %1)
  %9 = tail call { i64, ptr } @jv_array_set(i64 %0, ptr %1, i32 noundef %.sroa.1.0.extract.trunc.i.i, i64 %2, ptr %3)
  ret { i64, ptr } %9
}